target datalayout = "e-m:e-p270:32:32-p271:32:32-p272:64:64-i64:64-i128:128-f80:128-n8:16:32:64-S128"
target triple = "x86_64-pc-linux-gnu"

%struct.slurm_jc_conf = type { i8, ptr, ptr, ptr, i32, i32, ptr, i8, ptr, i8 }

@plugin_name = dso_local constant [27 x i8] c"job_container tmpfs plugin\00", align 16
@plugin_type = dso_local constant [20 x i8] c"job_container/tmpfs\00", align 16
@jc_conf = internal global ptr null, align 8
@.str = private unnamed_addr constant [59 x i8] c"%s: Configuration not read correctly: Does '%s' not exist?\00", align 1
@tmpfs_conf_file = external global ptr, align 8
@plugin_disabled = internal global i8 0, align 1
@.str.1 = private unnamed_addr constant [45 x i8] c"%s: %s: job_container.conf read successfully\00", align 1
@__func__.init = private unnamed_addr constant [5 x i8] c"init\00", align 1
@.str.2 = private unnamed_addr constant [18 x i8] c"%s: %s: %s loaded\00", align 1
@.str.20 = private unnamed_addr constant [5 x i8] c"none\00", align 1

; Function Attrs: nounwind uwtable
define internal zeroext i1 @_is_plugin_disabled(ptr noundef %0) #0 {
  %2 = alloca ptr, align 8
  store ptr %0, ptr %2, align 8
  %3 = load ptr, ptr %2, align 8
  %4 = icmp ne ptr %3, null
  br i1 %4, label %5, label %10

5:                                                ; preds = %1
  %6 = load ptr, ptr %2, align 8
  %7 = call i32 @slurm_xstrncasecmp(ptr noundef %6, ptr noundef @.str.20, i64 noundef 4)
  %8 = icmp ne i32 %7, 0
  %9 = xor i1 %8, true
  br label %10

10:                                               ; preds = %5, %1
  %11 = phi i1 [ true, %1 ], [ %9, %5 ]
  ret i1 %11
}

; Function Attrs: nounwind uwtable
define dso_local i32 @init() #0 {
  %1 = alloca i32, align 4
  %2 = call zeroext i1 @slurm_running_in_slurmd()
  br i1 %2, label %3, label %23

3:                                                ; preds = %0
  %4 = call ptr @init_slurm_jc_conf()
  store ptr %4, ptr @jc_conf, align 8
  %5 = icmp ne ptr %4, null
  br i1 %5, label %9, label %6

6:                                                ; preds = %3
  %7 = load ptr, ptr @tmpfs_conf_file, align 8
  %8 = call i32 (ptr, ...) @slurm_error(ptr noundef @.str, ptr noundef @plugin_type, ptr noundef %7)
  store i32 -1, ptr %1, align 4
  br label %32

9:                                                ; preds = %3
  %10 = load ptr, ptr @jc_conf, align 8
  %11 = getelementptr inbounds nuw %struct.slurm_jc_conf, ptr %10, i32 0, i32 1
  %12 = load ptr, ptr %11, align 8
  %13 = call zeroext i1 @_is_plugin_disabled(ptr noundef %12)
  %14 = zext i1 %13 to i8
  store i8 %14, ptr @plugin_disabled, align 1
  br label %15

15:                                               ; preds = %9
  br label %16

16:                                               ; preds = %15
  %17 = call i32 @slurm_get_log_level()
  %18 = icmp sge i32 %17, 5
  br i1 %18, label %19, label %20

19:                                               ; preds = %16
  call void (i32, ptr, ...) @slurm_log_var(i32 noundef 5, ptr noundef @.str.1, ptr noundef @plugin_type, ptr noundef @__func__.init)
  br label %20

20:                                               ; preds = %19, %16
  br label %21

21:                                               ; preds = %20
  br label %22

22:                                               ; preds = %21
  br label %23

23:                                               ; preds = %22, %0
  br label %24

24:                                               ; preds = %23
  br label %25

25:                                               ; preds = %24
  %26 = call i32 @slurm_get_log_level()
  %27 = icmp sge i32 %26, 5
  br i1 %27, label %28, label %29

28:                                               ; preds = %25
  call void (i32, ptr, ...) @slurm_log_var(i32 noundef 5, ptr noundef @.str.2, ptr noundef @plugin_type, ptr noundef @__func__.init, ptr noundef @plugin_name)
  br label %29

29:                                               ; preds = %28, %25
  br label %30

30:                                               ; preds = %29
  br label %31

31:                                               ; preds = %30
  store i32 0, ptr %1, align 4
  br label %32

32:                                               ; preds = %31, %6
  %33 = load i32, ptr %1, align 4
  ret i32 %33
}