; Function Attrs: nounwind uwtable
define dso_local range(i32 -1, 1) i32 @init() local_unnamed_addr #0 {
  %1 = tail call zeroext i1 @slurm_running_in_slurmd() #12
  br i1 %1, label %2, label %17

2:                                                ; preds = %0
  %3 = tail call ptr @init_slurm_jc_conf() #12
  store ptr %3, ptr @jc_conf, align 8
  %.not = icmp eq ptr %3, null
  br i1 %.not, label %4, label %7

4:                                                ; preds = %2
  %5 = load ptr, ptr @tmpfs_conf_file, align 8
  %6 = tail call i32 (ptr, ...) @slurm_error(ptr noundef nonnull @.str, ptr noundef nonnull @plugin_type, ptr noundef %5) #12
  br label %21

7:                                                ; preds = %2
  %8 = getelementptr inbounds nuw i8, ptr %3, i64 8
  %9 = load ptr, ptr %8, align 8
  %.not.i = icmp eq ptr %9, null
  br i1 %.not.i, label %_is_plugin_disabled.exit, label %10

10:                                               ; preds = %7
  %11 = tail call i32 @slurm_xstrncasecmp(ptr noundef nonnull %9, ptr noundef nonnull @.str.20, i64 noundef 4) #12
  %.not2.i = icmp eq i32 %11, 0
  %12 = zext i1 %.not2.i to i8
  br label %_is_plugin_disabled.exit

_is_plugin_disabled.exit:                         ; preds = %7, %10
  %13 = phi i8 [ 1, %7 ], [ %12, %10 ]
  store i8 %13, ptr @plugin_disabled, align 1
  %14 = tail call i32 @slurm_get_log_level() #12
  %15 = icmp sgt i32 %14, 4
  br i1 %15, label %16, label %17

16:                                               ; preds = %_is_plugin_disabled.exit
  tail call void (i32, ptr, ...) @slurm_log_var(i32 noundef 5, ptr noundef nonnull @.str.1, ptr noundef nonnull @plugin_type, ptr noundef nonnull @__func__.init) #12
  br label %17

17:                                               ; preds = %_is_plugin_disabled.exit, %16, %0
  %18 = tail call i32 @slurm_get_log_level() #12
  %19 = icmp sgt i32 %18, 4
  br i1 %19, label %20, label %21

20:                                               ; preds = %17
  tail call void (i32, ptr, ...) @slurm_log_var(i32 noundef 5, ptr noundef nonnull @.str.2, ptr noundef nonnull @plugin_type, ptr noundef nonnull @__func__.init, ptr noundef nonnull @plugin_name) #12
  br label %21

21:                                               ; preds = %17, %20, %4
  %.0 = phi i32 [ -1, %4 ], [ 0, %20 ], [ 0, %17 ]
  ret i32 %.0
}